; Function Attrs: mustprogress uwtable
define internal fastcc void @_ZN7doctest12_GLOBAL__N_115ConsoleReporter12printVersionEv(ptr %.8.val, i8 %.96.val.118.val) unnamed_addr #8 align 2 {
  %1 = icmp eq i8 %.96.val.118.val, 0
  br i1 %1, label %2, label %33

2:                                                ; preds = %0
  %3 = load i8, ptr @_ZN7doctest6detail11g_no_colorsE, align 1, !tbaa !10, !range !22, !noundef !23
  %4 = trunc nuw i8 %3 to i1
  br i1 %4, label %_ZN7doctest5ColorlsERSoNS0_4EnumE.exit, label %5

5:                                                ; preds = %2
  %6 = tail call i32 @isatty(i32 noundef 1) #49
  %7 = icmp eq i32 %6, 0
  br i1 %7, label %8, label %13

8:                                                ; preds = %5
  %9 = load ptr, ptr @_ZN7doctest6detail4g_csE, align 8, !tbaa !73
  %10 = getelementptr inbounds nuw i8, ptr %9, i64 120
  %11 = load i8, ptr %10, align 8, !tbaa !75, !range !22, !noundef !23
  %12 = icmp eq i8 %11, 0
  br i1 %12, label %_ZN7doctest5ColorlsERSoNS0_4EnumE.exit, label %13

13:                                               ; preds = %8, %5
  %14 = tail call noundef nonnull align 8 dereferenceable(8) ptr @_ZSt16__ostream_insertIcSt11char_traitsIcEERSt13basic_ostreamIT_T0_ES6_PKS3_l(ptr noundef nonnull align 8 dereferenceable(8) %.8.val, ptr noundef nonnull @.str.222, i64 noundef 1)
  %15 = tail call noundef nonnull align 8 dereferenceable(8) ptr @_ZSt16__ostream_insertIcSt11char_traitsIcEERSt13basic_ostreamIT_T0_ES6_PKS3_l(ptr noundef nonnull align 8 dereferenceable(8) %.8.val, ptr noundef nonnull @.str.214, i64 noundef 6)
  br label %_ZN7doctest5ColorlsERSoNS0_4EnumE.exit

_ZN7doctest5ColorlsERSoNS0_4EnumE.exit:           ; preds = %2, %8, %13
  %16 = tail call noundef nonnull align 8 dereferenceable(8) ptr @_ZSt16__ostream_insertIcSt11char_traitsIcEERSt13basic_ostreamIT_T0_ES6_PKS3_l(ptr noundef nonnull align 8 dereferenceable(8) %.8.val, ptr noundef nonnull @.str.345, i64 noundef 10)
  %17 = load i8, ptr @_ZN7doctest6detail11g_no_colorsE, align 1, !tbaa !10, !range !22, !noundef !23
  %18 = trunc nuw i8 %17 to i1
  br i1 %18, label %_ZN7doctest5ColorlsERSoNS0_4EnumE.exit1, label %19

19:                                               ; preds = %_ZN7doctest5ColorlsERSoNS0_4EnumE.exit
  %20 = tail call i32 @isatty(i32 noundef 1) #49
  %21 = icmp eq i32 %20, 0
  br i1 %21, label %22, label %27

22:                                               ; preds = %19
  %23 = load ptr, ptr @_ZN7doctest6detail4g_csE, align 8, !tbaa !73
  %24 = getelementptr inbounds nuw i8, ptr %23, i64 120
  %25 = load i8, ptr %24, align 8, !tbaa !75, !range !22, !noundef !23
  %26 = icmp eq i8 %25, 0
  br i1 %26, label %_ZN7doctest5ColorlsERSoNS0_4EnumE.exit1, label %27

27:                                               ; preds = %22, %19
  %28 = tail call noundef nonnull align 8 dereferenceable(8) ptr @_ZSt16__ostream_insertIcSt11char_traitsIcEERSt13basic_ostreamIT_T0_ES6_PKS3_l(ptr noundef nonnull align 8 dereferenceable(8) %.8.val, ptr noundef nonnull @.str.222, i64 noundef 1)
  %29 = tail call noundef nonnull align 8 dereferenceable(8) ptr @_ZSt16__ostream_insertIcSt11char_traitsIcEERSt13basic_ostreamIT_T0_ES6_PKS3_l(ptr noundef nonnull align 8 dereferenceable(8) %.8.val, ptr noundef nonnull @.str.221, i64 noundef 3)
  br label %_ZN7doctest5ColorlsERSoNS0_4EnumE.exit1

_ZN7doctest5ColorlsERSoNS0_4EnumE.exit1:          ; preds = %_ZN7doctest5ColorlsERSoNS0_4EnumE.exit, %22, %27
  %30 = tail call noundef nonnull align 8 dereferenceable(8) ptr @_ZSt16__ostream_insertIcSt11char_traitsIcEERSt13basic_ostreamIT_T0_ES6_PKS3_l(ptr noundef nonnull align 8 dereferenceable(8) %.8.val, ptr noundef nonnull @.str.350, i64 noundef 20)
  %31 = tail call noundef nonnull align 8 dereferenceable(8) ptr @_ZSt16__ostream_insertIcSt11char_traitsIcEERSt13basic_ostreamIT_T0_ES6_PKS3_l(ptr noundef nonnull align 8 dereferenceable(8) %.8.val, ptr noundef nonnull @.str.267, i64 noundef 6)
  %32 = tail call noundef nonnull align 8 dereferenceable(8) ptr @_ZSt16__ostream_insertIcSt11char_traitsIcEERSt13basic_ostreamIT_T0_ES6_PKS3_l(ptr noundef nonnull align 8 dereferenceable(8) %.8.val, ptr noundef nonnull @.str.351, i64 noundef 2)
  br label %33

33:                                               ; preds = %_ZN7doctest5ColorlsERSoNS0_4EnumE.exit1, %0
  ret void
}